; Function Attrs: nofree norecurse nosync nounwind memory(argmem: readwrite) uwtable
define internal fastcc i32 @make_decode_table(i32 noundef %0, i32 noundef %1, ptr nocapture noundef readonly %2, ptr nocapture noundef %3) unnamed_addr #2 {
  %5 = shl nuw nsw i32 1, %1
  %.fr170 = freeze i32 %5
  %6 = lshr i32 %.fr170, 1
  %.not117 = icmp eq i32 %1, 0
  br i1 %.not117, label %._crit_edge123, label %.preheader103.lr.ph

.preheader103.lr.ph:                              ; preds = %4
  %.not169 = icmp eq i32 %0, 0
  br i1 %.not169, label %.preheader103, label %.preheader103.us

.preheader103.us:                                 ; preds = %.preheader103.lr.ph, %._crit_edge.us
  %.0121.us = phi i32 [ %21, %._crit_edge.us ], [ %6, %.preheader103.lr.ph ]
  %.073120.us = phi i32 [ %.us-phi.us, %._crit_edge.us ], [ 0, %.preheader103.lr.ph ]
  %.075118.us = phi i8 [ %22, %._crit_edge.us ], [ 1, %.preheader103.lr.ph ]
  %.not100110.us = icmp eq i32 %.0121.us, 0
  br i1 %.not100110.us, label %.lr.ph116.split.us.us.preheader, label %.lr.ph116.split.us132

.lr.ph116.split.us.us.preheader:                  ; preds = %.preheader103.us
  %7 = icmp ule i32 %.073120.us, %.fr170
  br label %.lr.ph116.split.us.us

.lr.ph116.split.us132:                            ; preds = %.preheader103.us, %..loopexit102_crit_edge.us
  %.174115.us125 = phi i32 [ %.2.us128, %..loopexit102_crit_edge.us ], [ %.073120.us, %.preheader103.us ]
  %.087113.us126 = phi i16 [ %18, %..loopexit102_crit_edge.us ], [ 0, %.preheader103.us ]
  %8 = zext i16 %.087113.us126 to i64
  %9 = getelementptr inbounds i8, ptr %2, i64 %8
  %10 = load i8, ptr %9, align 1
  %.not99.us127 = icmp eq i8 %10, %.075118.us
  br i1 %.not99.us127, label %11, label %..loopexit102_crit_edge.us

11:                                               ; preds = %.lr.ph116.split.us132
  %12 = add i32 %.174115.us125, %.0121.us
  %13 = icmp ugt i32 %12, %.fr170
  br i1 %13, label %.loopexit, label %.preheader101.us129

.preheader101.us129:                              ; preds = %11, %.preheader101.us129
  %.077112.us = phi i32 [ %14, %.preheader101.us129 ], [ %.0121.us, %11 ]
  %.079111.us = phi i32 [ %15, %.preheader101.us129 ], [ %.174115.us125, %11 ]
  %14 = add nsw i32 %.077112.us, -1
  %15 = add i32 %.079111.us, 1
  %16 = zext i32 %.079111.us to i64
  %17 = getelementptr inbounds i16, ptr %3, i64 %16
  store i16 %.087113.us126, ptr %17, align 2
  %.not100.us = icmp eq i32 %14, 0
  br i1 %.not100.us, label %..loopexit102_crit_edge.us, label %.preheader101.us129

..loopexit102_crit_edge.us:                       ; preds = %.preheader101.us129, %.lr.ph116.split.us132
  %.2.us128 = phi i32 [ %.174115.us125, %.lr.ph116.split.us132 ], [ %12, %.preheader101.us129 ]
  %18 = add i16 %.087113.us126, 1
  %19 = zext i16 %18 to i32
  %20 = icmp ult i32 %19, %0
  br i1 %20, label %.lr.ph116.split.us132, label %._crit_edge.us

._crit_edge.us:                                   ; preds = %..loopexit102_crit_edge.us, %.preheader101.us.us
  %.us-phi.us = phi i32 [ %.073120.us, %.preheader101.us.us ], [ %.2.us128, %..loopexit102_crit_edge.us ]
  %21 = lshr i32 %.0121.us, 1
  %22 = add i8 %.075118.us, 1
  %23 = zext i8 %22 to i32
  %.not.us = icmp ugt i32 %23, %1
  br i1 %.not.us, label %._crit_edge123, label %.preheader103.us

.lr.ph116.split.us.us:                            ; preds = %.lr.ph116.split.us.us.preheader, %.preheader101.us.us
  %.087113.us.us = phi i16 [ %27, %.preheader101.us.us ], [ 0, %.lr.ph116.split.us.us.preheader ]
  %24 = zext i16 %.087113.us.us to i64
  %25 = getelementptr inbounds i8, ptr %2, i64 %24
  %26 = load i8, ptr %25, align 1
  %.not99.us.us = icmp ne i8 %26, %.075118.us
  %brmerge = select i1 %.not99.us.us, i1 true, i1 %7
  br i1 %brmerge, label %.preheader101.us.us, label %.loopexit

.preheader101.us.us:                              ; preds = %.lr.ph116.split.us.us
  %27 = add i16 %.087113.us.us, 1
  %28 = zext i16 %27 to i32
  %29 = icmp ult i32 %28, %0
  br i1 %29, label %.lr.ph116.split.us.us, label %._crit_edge.us

.preheader103:                                    ; preds = %.preheader103.lr.ph, %.preheader103
  %.075118 = phi i8 [ %30, %.preheader103 ], [ 1, %.preheader103.lr.ph ]
  %30 = add i8 %.075118, 1
  %31 = zext i8 %30 to i32
  %.not = icmp ugt i32 %31, %1
  br i1 %.not, label %._crit_edge123, label %.preheader103

._crit_edge123:                                   ; preds = %._crit_edge.us, %.preheader103, %4
  %.073.lcssa = phi i32 [ 0, %4 ], [ 0, %.preheader103 ], [ %.us-phi.us, %._crit_edge.us ]
  %32 = icmp eq i32 %.073.lcssa, %.fr170
  br i1 %32, label %.loopexit, label %33

33:                                               ; preds = %._crit_edge123
  %34 = and i32 %.073.lcssa, 65535
  %35 = icmp ugt i32 %.fr170, %34
  br i1 %35, label %.lr.ph.preheader, label %._crit_edge

.lr.ph.preheader:                                 ; preds = %33
  %36 = trunc i32 %.073.lcssa to i16
  br label %.lr.ph

.lr.ph:                                           ; preds = %.lr.ph.preheader, %.lr.ph
  %.188134 = phi i16 [ %39, %.lr.ph ], [ %36, %.lr.ph.preheader ]
  %37 = zext i16 %.188134 to i64
  %38 = getelementptr inbounds i16, ptr %3, i64 %37
  store i16 -1, ptr %38, align 2
  %39 = add i16 %.188134, 1
  %40 = zext i16 %39 to i32
  %41 = icmp ugt i32 %.fr170, %40
  br i1 %41, label %.lr.ph, label %._crit_edge

._crit_edge:                                      ; preds = %.lr.ph, %33
  %42 = shl i32 %.073.lcssa, 16
  %43 = shl i32 65536, %1
  %44 = trunc i32 %1 to i8
  %.176150 = add i8 %44, 1
  %45 = icmp ugt i8 %.176150, 16
  %.not171 = icmp eq i32 %0, 0
  %or.cond = or i1 %45, %.not171
  br i1 %or.cond, label %._crit_edge156, label %.preheader.us.preheader

.preheader.us.preheader:                          ; preds = %._crit_edge
  %46 = tail call i32 @llvm.umax.i32(i32 %6, i32 %0)
  %47 = trunc nuw nsw i32 %46 to i16
  %48 = zext nneg i8 %.176150 to i32
  %49 = sub i32 %48, %1
  br label %.preheader.us

.preheader.us:                                    ; preds = %.preheader.us.preheader, %._crit_edge146.us
  %indvars.iv180 = phi i32 [ %48, %.preheader.us.preheader ], [ %indvars.iv.next181, %._crit_edge146.us ]
  %indvars.iv = phi i32 [ %49, %.preheader.us.preheader ], [ %indvars.iv.next, %._crit_edge146.us ]
  %.1153.us = phi i32 [ 32768, %.preheader.us.preheader ], [ %64, %._crit_edge146.us ]
  %.3152.us = phi i32 [ %42, %.preheader.us.preheader ], [ %.us-phi149.us, %._crit_edge146.us ]
  %.082151.us = phi i16 [ %47, %.preheader.us.preheader ], [ %.us-phi.us165, %._crit_edge146.us ]
  %umax = tail call i32 @llvm.umax.i32(i32 %indvars.iv, i32 1)
  %.not172 = icmp eq i32 %indvars.iv180, %1
  br i1 %.not172, label %.lr.ph145.split.us164, label %.lr.ph145.split.us.us

.lr.ph145.split.us164:                            ; preds = %.preheader.us, %60
  %.4144.us157 = phi i32 [ %.5.us161, %60 ], [ %.3152.us, %.preheader.us ]
  %.289142.us158 = phi i16 [ %61, %60 ], [ 0, %.preheader.us ]
  %50 = zext i16 %.289142.us158 to i64
  %51 = getelementptr inbounds i8, ptr %2, i64 %50
  %52 = load i8, ptr %51, align 1
  %53 = zext i8 %52 to i32
  %.not96.us159 = icmp eq i32 %53, %1
  br i1 %.not96.us159, label %54, label %60

54:                                               ; preds = %.lr.ph145.split.us164
  %.not97.us160 = icmp ult i32 %.4144.us157, %43
  br i1 %.not97.us160, label %55, label %.loopexit

55:                                               ; preds = %54
  %56 = lshr i32 %.4144.us157, 16
  %57 = zext nneg i32 %56 to i64
  %58 = getelementptr inbounds i16, ptr %3, i64 %57
  store i16 %.289142.us158, ptr %58, align 2
  %59 = add i32 %.4144.us157, %.1153.us
  br label %60

60:                                               ; preds = %55, %.lr.ph145.split.us164
  %.5.us161 = phi i32 [ %.4144.us157, %.lr.ph145.split.us164 ], [ %59, %55 ]
  %61 = add i16 %.289142.us158, 1
  %62 = zext i16 %61 to i32
  %63 = icmp ult i32 %62, %0
  br i1 %63, label %.lr.ph145.split.us164, label %._crit_edge146.us

._crit_edge146.us:                                ; preds = %72, %60
  %.us-phi.us165 = phi i16 [ %.082151.us, %60 ], [ %.486.us.us, %72 ]
  %.us-phi149.us = phi i32 [ %.5.us161, %60 ], [ %.5.us.us, %72 ]
  %64 = lshr i32 %.1153.us, 1
  %indvars.iv.next181 = add nuw nsw i32 %indvars.iv180, 1
  %indvars.iv.next = add i32 %indvars.iv, 1
  %65 = and i32 %indvars.iv.next181, 255
  %exitcond183.not = icmp eq i32 %65, 17
  br i1 %exitcond183.not, label %._crit_edge156, label %.preheader.us

.lr.ph145.split.us.us:                            ; preds = %.preheader.us, %72
  %.4144.us.us = phi i32 [ %.5.us.us, %72 ], [ %.3152.us, %.preheader.us ]
  %.183143.us.us = phi i16 [ %.486.us.us, %72 ], [ %.082151.us, %.preheader.us ]
  %.289142.us.us = phi i16 [ %73, %72 ], [ 0, %.preheader.us ]
  %66 = zext i16 %.289142.us.us to i64
  %67 = getelementptr inbounds i8, ptr %2, i64 %66
  %68 = load i8, ptr %67, align 1
  %69 = zext i8 %68 to i32
  %.not96.us.us = icmp eq i32 %indvars.iv180, %69
  br i1 %.not96.us.us, label %70, label %72

70:                                               ; preds = %.lr.ph145.split.us.us
  %.not97.us.us = icmp ult i32 %.4144.us.us, %43
  br i1 %.not97.us.us, label %.lr.ph139.us.us, label %.loopexit

.lr.ph139.us.us:                                  ; preds = %70
  %71 = lshr i32 %.4144.us.us, 16
  br label %76

72:                                               ; preds = %._crit_edge140.us.us, %.lr.ph145.split.us.us
  %.486.us.us = phi i16 [ %.183143.us.us, %.lr.ph145.split.us.us ], [ %.385.us.us, %._crit_edge140.us.us ]
  %.5.us.us = phi i32 [ %.4144.us.us, %.lr.ph145.split.us.us ], [ %97, %._crit_edge140.us.us ]
  %73 = add i16 %.289142.us.us, 1
  %74 = zext i16 %73 to i32
  %75 = icmp ult i32 %74, %0
  br i1 %75, label %.lr.ph145.split.us.us, label %._crit_edge146.us

76:                                               ; preds = %90, %.lr.ph139.us.us
  %.178137.us.us = phi i32 [ 0, %.lr.ph139.us.us ], [ %94, %90 ]
  %.180136.us.us = phi i32 [ %71, %.lr.ph139.us.us ], [ %spec.select.us.us, %90 ]
  %.284135.us.us = phi i16 [ %.183143.us.us, %.lr.ph139.us.us ], [ %.385.us.us, %90 ]
  %77 = zext nneg i32 %.180136.us.us to i64
  %78 = getelementptr inbounds i16, ptr %3, i64 %77
  %79 = load i16, ptr %78, align 2
  %80 = icmp eq i16 %79, -1
  br i1 %80, label %81, label %._crit_edge184

._crit_edge184:                                   ; preds = %76
  %.pre = zext i16 %79 to i32
  %.pre185 = shl nuw nsw i32 %.pre, 1
  br label %90

81:                                               ; preds = %76
  %82 = zext i16 %.284135.us.us to i32
  %83 = shl nuw nsw i32 %82, 1
  %84 = zext nneg i32 %83 to i64
  %85 = getelementptr inbounds i16, ptr %3, i64 %84
  store i16 -1, ptr %85, align 2
  %86 = or disjoint i32 %83, 1
  %87 = zext nneg i32 %86 to i64
  %88 = getelementptr inbounds i16, ptr %3, i64 %87
  store i16 -1, ptr %88, align 2
  %89 = add i16 %.284135.us.us, 1
  store i16 %.284135.us.us, ptr %78, align 2
  br label %90

90:                                               ; preds = %._crit_edge184, %81
  %.pre-phi186 = phi i32 [ %.pre185, %._crit_edge184 ], [ %83, %81 ]
  %.385.us.us = phi i16 [ %.284135.us.us, %._crit_edge184 ], [ %89, %81 ]
  %91 = sub i32 15, %.178137.us.us
  %92 = lshr i32 %.4144.us.us, %91
  %93 = and i32 %92, 1
  %spec.select.us.us = or disjoint i32 %.pre-phi186, %93
  %94 = add nuw i32 %.178137.us.us, 1
  %exitcond.not = icmp eq i32 %94, %umax
  br i1 %exitcond.not, label %._crit_edge140.us.us, label %76

._crit_edge140.us.us:                             ; preds = %90
  %95 = zext nneg i32 %spec.select.us.us to i64
  %96 = getelementptr inbounds i16, ptr %3, i64 %95
  store i16 %.289142.us.us, ptr %96, align 2
  %97 = add i32 %.4144.us.us, %.1153.us
  br label %72

._crit_edge156:                                   ; preds = %._crit_edge146.us, %._crit_edge
  %.3.lcssa = phi i32 [ %42, %._crit_edge ], [ %.us-phi149.us, %._crit_edge146.us ]
  %98 = icmp ne i32 %.3.lcssa, %43
  %99 = zext i1 %98 to i32
  br label %.loopexit

.loopexit:                                        ; preds = %11, %.lr.ph116.split.us.us, %70, %54, %._crit_edge123, %._crit_edge156
  %.090 = phi i32 [ %99, %._crit_edge156 ], [ 0, %._crit_edge123 ], [ 1, %54 ], [ 1, %70 ], [ 1, %.lr.ph116.split.us.us ], [ 1, %11 ]
  ret i32 %.090
}